target datalayout = "e-m:e-p270:32:32-p271:32:32-p272:64:64-i64:64-i128:128-f80:128-n8:16:32:64-S128"
target triple = "x86_64-pc-linux-gnu"

@.str.49 = private unnamed_addr constant [23 x i8] c"%12.4e %12.4e %12.4e \0A\00", align 1
@.str.50 = private unnamed_addr constant [34 x i8] c"                  Sensitivity 1  \00", align 1
@.str.51 = private unnamed_addr constant [34 x i8] c"                  Sensitivity 2  \00", align 1
@.str.52 = private unnamed_addr constant [34 x i8] c"                  Sensitivity 3  \00", align 1

; Function Attrs: nounwind uwtable
define internal void @PrintOutputS(ptr noundef %0) #0 {
  %2 = alloca ptr, align 8
  %3 = alloca ptr, align 8
  store ptr %0, ptr %2, align 8, !tbaa !14
  call void @llvm.lifetime.start.p0(i64 8, ptr %3) #8
  %4 = load ptr, ptr %2, align 8, !tbaa !14
  %5 = getelementptr inbounds ptr, ptr %4, i64 0
  %6 = load ptr, ptr %5, align 8, !tbaa !12
  %7 = call ptr @N_VGetArrayPointer(ptr noundef %6)
  store ptr %7, ptr %3, align 8, !tbaa !43
  %8 = call i32 (ptr, ...) @printf(ptr noundef @.str.50)
  %9 = load ptr, ptr %3, align 8, !tbaa !43
  %10 = getelementptr inbounds double, ptr %9, i64 0
  %11 = load double, ptr %10, align 8, !tbaa !20
  %12 = load ptr, ptr %3, align 8, !tbaa !43
  %13 = getelementptr inbounds double, ptr %12, i64 1
  %14 = load double, ptr %13, align 8, !tbaa !20
  %15 = load ptr, ptr %3, align 8, !tbaa !43
  %16 = getelementptr inbounds double, ptr %15, i64 2
  %17 = load double, ptr %16, align 8, !tbaa !20
  %18 = call i32 (ptr, ...) @printf(ptr noundef @.str.49, double noundef %11, double noundef %14, double noundef %17)
  %19 = load ptr, ptr %2, align 8, !tbaa !14
  %20 = getelementptr inbounds ptr, ptr %19, i64 1
  %21 = load ptr, ptr %20, align 8, !tbaa !12
  %22 = call ptr @N_VGetArrayPointer(ptr noundef %21)
  store ptr %22, ptr %3, align 8, !tbaa !43
  %23 = call i32 (ptr, ...) @printf(ptr noundef @.str.51)
  %24 = load ptr, ptr %3, align 8, !tbaa !43
  %25 = getelementptr inbounds double, ptr %24, i64 0
  %26 = load double, ptr %25, align 8, !tbaa !20
  %27 = load ptr, ptr %3, align 8, !tbaa !43
  %28 = getelementptr inbounds double, ptr %27, i64 1
  %29 = load double, ptr %28, align 8, !tbaa !20
  %30 = load ptr, ptr %3, align 8, !tbaa !43
  %31 = getelementptr inbounds double, ptr %30, i64 2
  %32 = load double, ptr %31, align 8, !tbaa !20
  %33 = call i32 (ptr, ...) @printf(ptr noundef @.str.49, double noundef %26, double noundef %29, double noundef %32)
  %34 = load ptr, ptr %2, align 8, !tbaa !14
  %35 = getelementptr inbounds ptr, ptr %34, i64 2
  %36 = load ptr, ptr %35, align 8, !tbaa !12
  %37 = call ptr @N_VGetArrayPointer(ptr noundef %36)
  store ptr %37, ptr %3, align 8, !tbaa !43
  %38 = call i32 (ptr, ...) @printf(ptr noundef @.str.52)
  %39 = load ptr, ptr %3, align 8, !tbaa !43
  %40 = getelementptr inbounds double, ptr %39, i64 0
  %41 = load double, ptr %40, align 8, !tbaa !20
  %42 = load ptr, ptr %3, align 8, !tbaa !43
  %43 = getelementptr inbounds double, ptr %42, i64 1
  %44 = load double, ptr %43, align 8, !tbaa !20
  %45 = load ptr, ptr %3, align 8, !tbaa !43
  %46 = getelementptr inbounds double, ptr %45, i64 2
  %47 = load double, ptr %46, align 8, !tbaa !20
  %48 = call i32 (ptr, ...) @printf(ptr noundef @.str.49, double noundef %41, double noundef %44, double noundef %47)
  call void @llvm.lifetime.end.p0(i64 8, ptr %3) #8
  ret void
}